; Function Attrs: null_pointer_is_valid sspstrong uwtable
define internal i32 @dissect_djiuav_static(ptr noundef %0, ptr noundef %1, ptr noundef %2, ptr noundef %3) #0 {
  %5 = tail call i32 @tvb_captured_length(ptr noundef %0)
  %6 = icmp ult i32 %5, 8
  br i1 %6, label %test_djiuav.exit.thread, label %test_djiuav.exit

test_djiuav.exit:                                 ; preds = %4
  %7 = tail call zeroext i16 @tvb_get_ntohs(ptr noundef %0, i32 noundef 0)
  %.not.i = icmp eq i16 %7, 21947
  br i1 %.not.i, label %8, label %test_djiuav.exit.thread

8:                                                ; preds = %test_djiuav.exit
  %9 = load i8, ptr @djiuav_desegment, align 1, !range !6, !noundef !7
  %10 = trunc nuw i8 %9 to i1
  tail call void @tcp_dissect_pdus(ptr noundef %0, ptr noundef %1, ptr noundef %2, i1 noundef zeroext %10, i32 noundef 8, ptr noundef nonnull @get_djiuav_pdu_len, ptr noundef nonnull @dissect_djiuav_pdu, ptr noundef %3)
  %11 = tail call i32 @tvb_captured_length(ptr noundef %0)
  br label %test_djiuav.exit.thread

test_djiuav.exit.thread:                          ; preds = %4, %test_djiuav.exit, %8
  %.0 = phi i32 [ %11, %8 ], [ 0, %test_djiuav.exit ], [ 0, %4 ]
  ret i32 %.0
}